; Function Attrs: nounwind uwtable
define hidden void @zend_fiber_init() local_unnamed_addr #7 {
  %1 = tail call noalias dereferenceable_or_null(104) ptr @_ecalloc(i64 noundef 1, i64 noundef 104) #27
  %2 = getelementptr inbounds nuw i8, ptr %1, i64 40
  store i32 1, ptr %2, align 8, !tbaa !53
  store ptr %1, ptr getelementptr inbounds nuw (i8, ptr @executor_globals, i64 1760), align 8, !tbaa !205
  store ptr %1, ptr getelementptr inbounds nuw (i8, ptr @executor_globals, i64 1768), align 8, !tbaa !60
  store ptr null, ptr getelementptr inbounds nuw (i8, ptr @executor_globals, i64 1776), align 8, !tbaa !70
  store i32 0, ptr @zend_fiber_switch_blocking, align 4, !tbaa !45
  ret void
}